target datalayout = "e-m:e-p270:32:32-p271:32:32-p272:64:64-i64:64-i128:128-f80:128-n8:16:32:64-S128"
target triple = "x86_64-pc-linux-gnu"

%struct.QualName = type { i32, ptr }
%"struct.(anonymous namespace)::DumpVisitor" = type <{ i32, i8, [3 x i8] }>

@.str.3 = private unnamed_addr constant [2 x i8] c"\0A\00", align 1
@.str.4 = private unnamed_addr constant [2 x i8] c" \00", align 1
@stderr = external global ptr, align 8
@.str.5 = private unnamed_addr constant [3 x i8] c"%s\00", align 1
@.str.14 = private unnamed_addr constant [2 x i8] c",\00", align 1
@.str.15 = private unnamed_addr constant [3 x i8] c", \00", align 1
@.str.20 = private unnamed_addr constant [9 x i8] c"QualNone\00", align 1
@__const._ZN12_GLOBAL__N_111DumpVisitor5printENS_16itanium_demangle10QualifiersE.Names = private unnamed_addr constant [3 x %struct.QualName] [%struct.QualName { i32 1, ptr @.str.21 }, %struct.QualName { i32 2, ptr @.str.22 }, %struct.QualName { i32 4, ptr @.str.23 }], align 16
@.str.24 = private unnamed_addr constant [4 x i8] c" | \00", align 1

; Function Attrs: mustprogress nounwind uwtable
define internal void @_ZN12_GLOBAL__N_111DumpVisitor5printENS_16itanium_demangle10QualifiersE(ptr noundef nonnull align 4 dereferenceable(5) %0, i32 noundef %1) #6 align 2 {
  %3 = alloca ptr, align 8
  %4 = alloca i32, align 4
  %5 = alloca [3 x %struct.QualName], align 16
  %6 = alloca ptr, align 8
  %7 = alloca ptr, align 8
  %8 = alloca ptr, align 8
  %9 = alloca %struct.QualName, align 8
  store ptr %0, ptr %3, align 8, !tbaa !9
  store i32 %1, ptr %4, align 4, !tbaa !234
  %10 = load ptr, ptr %3, align 8
  %11 = load i32, ptr %4, align 4, !tbaa !234
  %12 = icmp ne i32 %11, 0
  br i1 %12, label %14, label %13

13:                                               ; preds = %2
  call void @_ZN12_GLOBAL__N_111DumpVisitor8printStrEPKc(ptr noundef nonnull align 4 dereferenceable(5) %10, ptr noundef @.str.20)
  br label %49

14:                                               ; preds = %2
  call void @llvm.lifetime.start.p0(i64 48, ptr %5) #19
  call void @llvm.memcpy.p0.p0.i64(ptr align 16 %5, ptr align 16 @__const._ZN12_GLOBAL__N_111DumpVisitor5printENS_16itanium_demangle10QualifiersE.Names, i64 48, i1 false)
  call void @llvm.lifetime.start.p0(i64 8, ptr %6) #19
  store ptr %5, ptr %6, align 8, !tbaa !485
  call void @llvm.lifetime.start.p0(i64 8, ptr %7) #19
  %15 = load ptr, ptr %6, align 8, !tbaa !485
  %16 = getelementptr inbounds [3 x %struct.QualName], ptr %15, i64 0, i64 0
  store ptr %16, ptr %7, align 8, !tbaa !485
  call void @llvm.lifetime.start.p0(i64 8, ptr %8) #19
  %17 = load ptr, ptr %6, align 8, !tbaa !485
  %18 = getelementptr inbounds [3 x %struct.QualName], ptr %17, i64 0, i64 0
  %19 = getelementptr inbounds %struct.QualName, ptr %18, i64 3
  store ptr %19, ptr %8, align 8, !tbaa !485
  br label %20

20:                                               ; preds = %45, %14
  %21 = load ptr, ptr %7, align 8, !tbaa !485
  %22 = load ptr, ptr %8, align 8, !tbaa !485
  %23 = icmp ne ptr %21, %22
  br i1 %23, label %25, label %24

24:                                               ; preds = %20
  call void @llvm.lifetime.end.p0(i64 8, ptr %8) #19
  call void @llvm.lifetime.end.p0(i64 8, ptr %7) #19
  call void @llvm.lifetime.end.p0(i64 8, ptr %6) #19
  br label %48

25:                                               ; preds = %20
  call void @llvm.lifetime.start.p0(i64 16, ptr %9) #19
  %26 = load ptr, ptr %7, align 8, !tbaa !485
  call void @llvm.memcpy.p0.p0.i64(ptr align 8 %9, ptr align 8 %26, i64 16, i1 false), !tbaa.struct !487
  %27 = load i32, ptr %4, align 4, !tbaa !234
  %28 = getelementptr inbounds nuw %struct.QualName, ptr %9, i32 0, i32 0
  %29 = load i32, ptr %28, align 8, !tbaa !488
  %30 = and i32 %27, %29
  %31 = icmp ne i32 %30, 0
  br i1 %31, label %32, label %44

32:                                               ; preds = %25
  %33 = getelementptr inbounds nuw %struct.QualName, ptr %9, i32 0, i32 1
  %34 = load ptr, ptr %33, align 8, !tbaa !490
  call void @_ZN12_GLOBAL__N_111DumpVisitor8printStrEPKc(ptr noundef nonnull align 4 dereferenceable(5) %10, ptr noundef %34)
  %35 = load i32, ptr %4, align 4, !tbaa !234
  %36 = getelementptr inbounds nuw %struct.QualName, ptr %9, i32 0, i32 0
  %37 = load i32, ptr %36, align 8, !tbaa !488
  %38 = xor i32 %37, -1
  %39 = and i32 %35, %38
  store i32 %39, ptr %4, align 4, !tbaa !234
  %40 = load i32, ptr %4, align 4, !tbaa !234
  %41 = icmp ne i32 %40, 0
  br i1 %41, label %42, label %43

42:                                               ; preds = %32
  call void @_ZN12_GLOBAL__N_111DumpVisitor8printStrEPKc(ptr noundef nonnull align 4 dereferenceable(5) %10, ptr noundef @.str.24)
  br label %43

43:                                               ; preds = %42, %32
  br label %44

44:                                               ; preds = %43, %25
  call void @llvm.lifetime.end.p0(i64 16, ptr %9) #19
  br label %45

45:                                               ; preds = %44
  %46 = load ptr, ptr %7, align 8, !tbaa !485
  %47 = getelementptr inbounds nuw %struct.QualName, ptr %46, i32 1
  store ptr %47, ptr %7, align 8, !tbaa !485
  br label %20

48:                                               ; preds = %24
  call void @llvm.lifetime.end.p0(i64 48, ptr %5) #19
  br label %49

49:                                               ; preds = %48, %13
  ret void
}

; Function Attrs: mustprogress uwtable
define internal void @_ZN12_GLOBAL__N_111DumpVisitor23printWithPendingNewlineINS_16itanium_demangle10QualifiersEEEvT_(ptr noundef nonnull align 4 dereferenceable(5) %0, i32 noundef %1) #3 align 2 {
  %3 = alloca ptr, align 8
  %4 = alloca i32, align 4
  store ptr %0, ptr %3, align 8, !tbaa !9
  store i32 %1, ptr %4, align 4, !tbaa !234
  %5 = load ptr, ptr %3, align 8
  %6 = load i32, ptr %4, align 4, !tbaa !234
  call void @_ZN12_GLOBAL__N_111DumpVisitor5printENS_16itanium_demangle10QualifiersE(ptr noundef nonnull align 4 dereferenceable(5) %5, i32 noundef %6)
  %7 = load i32, ptr %4, align 4, !tbaa !234
  %8 = call noundef zeroext i1 (...) @_ZN12_GLOBAL__N_111DumpVisitor12wantsNewlineEz(i32 noundef %7)
  br i1 %8, label %9, label %11

9:                                                ; preds = %2
  %10 = getelementptr inbounds nuw %"struct.(anonymous namespace)::DumpVisitor", ptr %5, i32 0, i32 1
  store i8 1, ptr %10, align 4, !tbaa !15
  br label %11

11:                                               ; preds = %9, %2
  ret void
}

; Function Attrs: mustprogress uwtable
define internal void @_ZN12_GLOBAL__N_111DumpVisitor7newLineEv(ptr noundef nonnull align 4 dereferenceable(5) %0) #3 align 2 {
  %2 = alloca ptr, align 8
  %3 = alloca i32, align 4
  store ptr %0, ptr %2, align 8, !tbaa !9
  %4 = load ptr, ptr %2, align 8
  call void @_ZN12_GLOBAL__N_111DumpVisitor8printStrEPKc(ptr noundef nonnull align 4 dereferenceable(5) %4, ptr noundef @.str.3)
  call void @llvm.lifetime.start.p0(i64 4, ptr %3) #19
  store i32 0, ptr %3, align 4, !tbaa !196
  br label %5

5:                                                ; preds = %12, %1
  %6 = load i32, ptr %3, align 4, !tbaa !196
  %7 = getelementptr inbounds nuw %"struct.(anonymous namespace)::DumpVisitor", ptr %4, i32 0, i32 0
  %8 = load i32, ptr %7, align 4, !tbaa !11
  %9 = icmp ne i32 %6, %8
  br i1 %9, label %11, label %10

10:                                               ; preds = %5
  call void @llvm.lifetime.end.p0(i64 4, ptr %3) #19
  br label %15

11:                                               ; preds = %5
  call void @_ZN12_GLOBAL__N_111DumpVisitor8printStrEPKc(ptr noundef nonnull align 4 dereferenceable(5) %4, ptr noundef @.str.4)
  br label %12

12:                                               ; preds = %11
  %13 = load i32, ptr %3, align 4, !tbaa !196
  %14 = add i32 %13, 1
  store i32 %14, ptr %3, align 4, !tbaa !196
  br label %5, !llvm.loop !197

15:                                               ; preds = %10
  %16 = getelementptr inbounds nuw %"struct.(anonymous namespace)::DumpVisitor", ptr %4, i32 0, i32 1
  store i8 0, ptr %16, align 4, !tbaa !15
  ret void
}

; Function Attrs: mustprogress nounwind uwtable
define internal void @_ZN12_GLOBAL__N_111DumpVisitor8printStrEPKc(ptr noundef nonnull align 4 dereferenceable(5) %0, ptr noundef %1) #6 align 2 {
  %3 = alloca ptr, align 8
  %4 = alloca ptr, align 8
  store ptr %0, ptr %3, align 8, !tbaa !9
  store ptr %1, ptr %4, align 8, !tbaa !194
  %5 = load ptr, ptr @stderr, align 8, !tbaa !242
  %6 = load ptr, ptr %4, align 8, !tbaa !194
  %7 = call i32 (ptr, ptr, ...) @fprintf(ptr noundef %5, ptr noundef @.str.5, ptr noundef %6) #19
  ret void
}

; Function Attrs: mustprogress nounwind uwtable
define internal noundef zeroext i1 @_ZN12_GLOBAL__N_111DumpVisitor12wantsNewlineEz(...) #6 align 2 {
  ret i1 false
}

; Function Attrs: mustprogress uwtable
define internal void @_ZN12_GLOBAL__N_111DumpVisitor14printWithCommaINS_16itanium_demangle10QualifiersEEEvT_(ptr noundef nonnull align 4 dereferenceable(5) %0, i32 noundef %1) #3 align 2 {
  %3 = alloca ptr, align 8
  %4 = alloca i32, align 4
  store ptr %0, ptr %3, align 8, !tbaa !9
  store i32 %1, ptr %4, align 4, !tbaa !234
  %5 = load ptr, ptr %3, align 8
  %6 = getelementptr inbounds nuw %"struct.(anonymous namespace)::DumpVisitor", ptr %5, i32 0, i32 1
  %7 = load i8, ptr %6, align 4, !tbaa !15, !range !210, !noundef !211
  %8 = trunc i8 %7 to i1
  br i1 %8, label %12, label %9

9:                                                ; preds = %2
  %10 = load i32, ptr %4, align 4, !tbaa !234
  %11 = call noundef zeroext i1 (...) @_ZN12_GLOBAL__N_111DumpVisitor12wantsNewlineEz(i32 noundef %10)
  br i1 %11, label %12, label %13

12:                                               ; preds = %9, %2
  call void @_ZN12_GLOBAL__N_111DumpVisitor8printStrEPKc(ptr noundef nonnull align 4 dereferenceable(5) %5, ptr noundef @.str.14)
  call void @_ZN12_GLOBAL__N_111DumpVisitor7newLineEv(ptr noundef nonnull align 4 dereferenceable(5) %5)
  br label %14

13:                                               ; preds = %9
  call void @_ZN12_GLOBAL__N_111DumpVisitor8printStrEPKc(ptr noundef nonnull align 4 dereferenceable(5) %5, ptr noundef @.str.15)
  br label %14

14:                                               ; preds = %13, %12
  %15 = load i32, ptr %4, align 4, !tbaa !234
  call void @_ZN12_GLOBAL__N_111DumpVisitor23printWithPendingNewlineINS_16itanium_demangle10QualifiersEEEvT_(ptr noundef nonnull align 4 dereferenceable(5) %5, i32 noundef %15)
  ret void
}