; Function Attrs: mustprogress nofree nounwind uwtable
define internal fastcc void @_ZN12_GLOBAL__N_111DumpVisitor14printWithCommaINS_16itanium_demangle10QualifiersEEEvT_(ptr noundef nonnull align 4 captures(none) dereferenceable(5) %0, i32 noundef %1) unnamed_addr #20 align 2 {
  %3 = getelementptr inbounds nuw i8, ptr %0, i64 4
  %4 = load i8, ptr %3, align 4, !tbaa !10, !range !232, !noundef !233
  %5 = trunc nuw i8 %4 to i1
  %6 = load ptr, ptr @stderr, align 8, !tbaa !11
  br i1 %5, label %9, label %7

7:                                                ; preds = %2
  %8 = tail call i64 @fwrite(ptr nonnull @.str.15, i64 2, i64 1, ptr %6) #37
  br label %15

9:                                                ; preds = %2
  %fputc = tail call i32 @fputc(i32 44, ptr %6)
  %10 = load ptr, ptr @stderr, align 8, !tbaa !11
  %fputc.i = tail call i32 @fputc(i32 10, ptr %10)
  %11 = load i32, ptr %0, align 4, !tbaa !4
  %.not4.i = icmp eq i32 %11, 0
  br i1 %.not4.i, label %_ZN12_GLOBAL__N_111DumpVisitor7newLineEv.exit, label %.lr.ph.i

.lr.ph.i:                                         ; preds = %9, %.lr.ph.i
  %.05.i = phi i32 [ %13, %.lr.ph.i ], [ 0, %9 ]
  %12 = load ptr, ptr @stderr, align 8, !tbaa !11
  %fputc3.i = tail call i32 @fputc(i32 32, ptr %12)
  %13 = add i32 %.05.i, 1
  %14 = load i32, ptr %0, align 4, !tbaa !4
  %.not.i = icmp eq i32 %13, %14
  br i1 %.not.i, label %_ZN12_GLOBAL__N_111DumpVisitor7newLineEv.exit, label %.lr.ph.i, !llvm.loop !14

_ZN12_GLOBAL__N_111DumpVisitor7newLineEv.exit:    ; preds = %.lr.ph.i, %9
  store i8 0, ptr %3, align 4, !tbaa !10
  br label %15

15:                                               ; preds = %7, %_ZN12_GLOBAL__N_111DumpVisitor7newLineEv.exit
  %.not.i.i = icmp eq i32 %1, 0
  br i1 %.not.i.i, label %16, label %.preheader.i.i

16:                                               ; preds = %15
  %17 = load ptr, ptr @stderr, align 8, !tbaa !11
  %18 = tail call i64 @fwrite(ptr nonnull @.str.20, i64 8, i64 1, ptr %17) #37
  br label %_ZN12_GLOBAL__N_111DumpVisitor23printWithPendingNewlineINS_16itanium_demangle10QualifiersEEEvT_.exit

.preheader.i.i:                                   ; preds = %15, %27
  %.02.i.i = phi i32 [ %.1.i.i, %27 ], [ %1, %15 ]
  %.012.idx1.i.i = phi i64 [ %.012.add.i.i, %27 ], [ 0, %15 ]
  %.012.ptr3.i.i = getelementptr inbounds nuw i8, ptr @__const._ZN12_GLOBAL__N_111DumpVisitor5printENS_16itanium_demangle10QualifiersE.Names, i64 %.012.idx1.i.i
  %.sroa.0.0.copyload.i.i = load i32, ptr %.012.ptr3.i.i, align 16, !tbaa !210
  %19 = and i32 %.sroa.0.0.copyload.i.i, %.02.i.i
  %.not17.i.i = icmp eq i32 %19, 0
  br i1 %.not17.i.i, label %27, label %20

20:                                               ; preds = %.preheader.i.i
  %.sroa.52.0..sroa_idx.i.i = getelementptr inbounds nuw i8, ptr %.012.ptr3.i.i, i64 8
  %.sroa.52.0.copyload.i.i = load ptr, ptr %.sroa.52.0..sroa_idx.i.i, align 8, !tbaa !219
  %21 = load ptr, ptr @stderr, align 8, !tbaa !11
  %fputs.i19.i.i = tail call i32 @fputs(ptr readonly %.sroa.52.0.copyload.i.i, ptr %21) #37
  %22 = xor i32 %.sroa.0.0.copyload.i.i, -1
  %23 = and i32 %.02.i.i, %22
  %.not18.i.i = icmp eq i32 %23, 0
  br i1 %.not18.i.i, label %27, label %24

24:                                               ; preds = %20
  %25 = load ptr, ptr @stderr, align 8, !tbaa !11
  %26 = tail call i64 @fwrite(ptr nonnull @.str.24, i64 3, i64 1, ptr %25) #37
  br label %27

27:                                               ; preds = %24, %20, %.preheader.i.i
  %.1.i.i = phi i32 [ %23, %24 ], [ 0, %20 ], [ %.02.i.i, %.preheader.i.i ]
  %.012.add.i.i = add nuw nsw i64 %.012.idx1.i.i, 16
  %.not16.i.i = icmp eq i64 %.012.add.i.i, 48
  br i1 %.not16.i.i, label %_ZN12_GLOBAL__N_111DumpVisitor23printWithPendingNewlineINS_16itanium_demangle10QualifiersEEEvT_.exit, label %.preheader.i.i

_ZN12_GLOBAL__N_111DumpVisitor23printWithPendingNewlineINS_16itanium_demangle10QualifiersEEEvT_.exit: ; preds = %27, %16
  ret void
}